; Function Attrs: mustprogress uwtable
define dso_local void @_ZN4Luau7CodeGen3X6418AssemblyBuilderX643retEv(ptr noundef nonnull align 8 dereferenceable(252) %0) local_unnamed_addr #0 align 2 {
  %2 = getelementptr inbounds nuw i8, ptr %0, i64 80
  %3 = load i8, ptr %2, align 8, !tbaa !14, !range !61, !noundef !62
  %4 = trunc nuw i8 %3 to i1
  br i1 %4, label %5, label %6

5:                                                ; preds = %1
  tail call void @_ZN4Luau7CodeGen3X6418AssemblyBuilderX643logEPKc(ptr noundef nonnull align 8 dereferenceable(252) %0, ptr noundef nonnull @.str.29)
  br label %6

6:                                                ; preds = %5, %1
  %7 = getelementptr inbounds nuw i8, ptr %0, i64 232
  %8 = load ptr, ptr %7, align 8, !tbaa !51
  %9 = getelementptr inbounds nuw i8, ptr %8, i64 1
  store ptr %9, ptr %7, align 8, !tbaa !51
  store i8 -61, ptr %8, align 1, !tbaa !13
  %10 = getelementptr inbounds nuw i8, ptr %0, i64 248
  %11 = load i32, ptr %10, align 8, !tbaa !63
  %12 = add i32 %11, 1
  store i32 %12, ptr %10, align 8, !tbaa !63
  %13 = getelementptr inbounds nuw i8, ptr %0, i64 240
  %14 = load ptr, ptr %13, align 8, !tbaa !52
  %15 = load ptr, ptr %7, align 8, !tbaa !51
  %16 = ptrtoint ptr %14 to i64
  %17 = ptrtoint ptr %15 to i64
  %18 = sub i64 %16, %17
  %19 = and i64 %18, 4294967280
  %20 = icmp eq i64 %19, 0
  br i1 %20, label %21, label %_ZN4Luau7CodeGen3X6418AssemblyBuilderX646commitEv.exit

21:                                               ; preds = %6
  tail call void @_ZN4Luau7CodeGen3X6418AssemblyBuilderX646extendEv(ptr noundef nonnull align 8 dereferenceable(252) %0)
  br label %_ZN4Luau7CodeGen3X6418AssemblyBuilderX646commitEv.exit

_ZN4Luau7CodeGen3X6418AssemblyBuilderX646commitEv.exit: ; preds = %6, %21
  ret void
}